
ir-tester.elf:     file format elf32-avr

Sections:
Idx Name          Size      VMA       LMA       File off  Algn
  0 .text         00000882  00000000  00000000  000000b4  2**1
                  CONTENTS, ALLOC, LOAD, READONLY, CODE
  1 .data         00000002  00800060  00000882  00000936  2**0
                  CONTENTS, ALLOC, LOAD, DATA
  2 .bss          0000003d  00800062  00800062  00000938  2**0
                  ALLOC

Disassembly of section .text:

00000000 <__vectors>:
   0:	41 c0       	rjmp	.+130    	; 0x84 <__ctors_end>
   2:	1c c3       	rjmp	.+1592   	; 0x63c <__vector_1>
   4:	5a c0       	rjmp	.+180    	; 0xba <__bad_interrupt>
   6:	5a c0       	rjmp	.+180    	; 0xbc <__vector_3>
   8:	58 c0       	rjmp	.+176    	; 0xba <__bad_interrupt>
   a:	57 c0       	rjmp	.+174    	; 0xba <__bad_interrupt>
   c:	56 c0       	rjmp	.+172    	; 0xba <__bad_interrupt>
   e:	55 c0       	rjmp	.+170    	; 0xba <__bad_interrupt>
  10:	54 c0       	rjmp	.+168    	; 0xba <__bad_interrupt>
  12:	53 c0       	rjmp	.+166    	; 0xba <__bad_interrupt>
  14:	52 c0       	rjmp	.+164    	; 0xba <__bad_interrupt>
  16:	51 c0       	rjmp	.+162    	; 0xba <__bad_interrupt>
  18:	50 c0       	rjmp	.+160    	; 0xba <__bad_interrupt>
  1a:	4f c0       	rjmp	.+158    	; 0xba <__bad_interrupt>
  1c:	4e c0       	rjmp	.+156    	; 0xba <__bad_interrupt>
  1e:	4d c0       	rjmp	.+154    	; 0xba <__bad_interrupt>
  20:	4c c0       	rjmp	.+152    	; 0xba <__bad_interrupt>
  22:	4b c0       	rjmp	.+150    	; 0xba <__bad_interrupt>
  24:	4a c0       	rjmp	.+148    	; 0xba <__bad_interrupt>

00000026 <sp_codes>:
  26:	80 40 88 20 a0 60 10 90 50 30 b0 70                 .@. .`..P0.p

00000032 <usbDescriptorString0>:
  32:	04 03 09 04                                         ....

00000036 <usbDescriptorStringVendor>:
  36:	14 03 6b 00 69 00 65 00 73 00 62 00 61 00 75 00     ..k.i.e.s.b.a.u.
  46:	65 00 72 00                                         e.r.

0000004a <usbDescriptorStringDevice>:
  4a:	0e 03 69 00 72 00 55 00 74 00 69 00 6c 00           ..i.r.U.t.i.l.

00000058 <usbDescriptorDevice>:
  58:	12 01 10 01 ff 00 00 08 c0 16 dc 05 00 01 01 02     ................
  68:	00 01                                               ..

0000006a <usbDescriptorConfiguration>:
  6a:	09 02 19 00 01 01 00 c0 0a 09 04 00 00 01 00 00     ................
  7a:	00 00 07 05 81 03 08 00 64 00                       ........d.

00000084 <__ctors_end>:
  84:	11 24       	eor	r1, r1
  86:	1f be       	out	0x3f, r1	; 63
  88:	cf e5       	ldi	r28, 0x5F	; 95
  8a:	d4 e0       	ldi	r29, 0x04	; 4
  8c:	de bf       	out	0x3e, r29	; 62
  8e:	cd bf       	out	0x3d, r28	; 61

00000090 <__do_copy_data>:
  90:	10 e0       	ldi	r17, 0x00	; 0
  92:	a0 e6       	ldi	r26, 0x60	; 96
  94:	b0 e0       	ldi	r27, 0x00	; 0
  96:	e2 e8       	ldi	r30, 0x82	; 130
  98:	f8 e0       	ldi	r31, 0x08	; 8
  9a:	02 c0       	rjmp	.+4      	; 0xa0 <__do_copy_data+0x10>
  9c:	05 90       	lpm	r0, Z+
  9e:	0d 92       	st	X+, r0
  a0:	a2 36       	cpi	r26, 0x62	; 98
  a2:	b1 07       	cpc	r27, r17
  a4:	d9 f7       	brne	.-10     	; 0x9c <__do_copy_data+0xc>

000000a6 <__do_clear_bss>:
  a6:	10 e0       	ldi	r17, 0x00	; 0
  a8:	a2 e6       	ldi	r26, 0x62	; 98
  aa:	b0 e0       	ldi	r27, 0x00	; 0
  ac:	01 c0       	rjmp	.+2      	; 0xb0 <.do_clear_bss_start>

000000ae <.do_clear_bss_loop>:
  ae:	1d 92       	st	X+, r1

000000b0 <.do_clear_bss_start>:
  b0:	af 39       	cpi	r26, 0x9F	; 159
  b2:	b1 07       	cpc	r27, r17
  b4:	e1 f7       	brne	.-8      	; 0xae <.do_clear_bss_loop>
  b6:	55 d0       	rcall	.+170    	; 0x162 <main>
  b8:	e2 c3       	rjmp	.+1988   	; 0x87e <_exit>

000000ba <__bad_interrupt>:
  ba:	a2 cf       	rjmp	.-188    	; 0x0 <__vectors>

000000bc <__vector_3>:
  bc:	1f 92       	push	r1
  be:	0f 92       	push	r0
  c0:	0f b6       	in	r0, 0x3f	; 63
  c2:	0f 92       	push	r0
  c4:	11 24       	eor	r1, r1
  c6:	2f 93       	push	r18
  c8:	8f 93       	push	r24
  ca:	9f 93       	push	r25
  cc:	80 91 66 00 	lds	r24, 0x0066
  d0:	8f 5f       	subi	r24, 0xFF	; 255
  d2:	80 93 66 00 	sts	0x0066, r24
  d6:	86 30       	cpi	r24, 0x06	; 6
  d8:	19 f4       	brne	.+6      	; 0xe0 <__vector_3+0x24>
  da:	95 b5       	in	r25, 0x25	; 37
  dc:	9f 7e       	andi	r25, 0xEF	; 239
  de:	95 bd       	out	0x25, r25	; 37
  e0:	90 91 67 00 	lds	r25, 0x0067
  e4:	89 17       	cp	r24, r25
  e6:	11 f5       	brne	.+68     	; 0x12c <__vector_3+0x70>
  e8:	20 91 65 00 	lds	r18, 0x0065
  ec:	80 91 68 00 	lds	r24, 0x0068
  f0:	99 27       	eor	r25, r25
  f2:	87 fd       	sbrc	r24, 7
  f4:	90 95       	com	r25
  f6:	02 2e       	mov	r0, r18
  f8:	02 c0       	rjmp	.+4      	; 0xfe <__vector_3+0x42>
  fa:	95 95       	asr	r25
  fc:	87 95       	ror	r24
  fe:	0a 94       	dec	r0
 100:	e2 f7       	brpl	.-8      	; 0xfa <__vector_3+0x3e>
 102:	80 fd       	sbrc	r24, 0
 104:	02 c0       	rjmp	.+4      	; 0x10a <__vector_3+0x4e>
 106:	8c e0       	ldi	r24, 0x0C	; 12
 108:	01 c0       	rjmp	.+2      	; 0x10c <__vector_3+0x50>
 10a:	87 e1       	ldi	r24, 0x17	; 23
 10c:	80 93 67 00 	sts	0x0067, r24
 110:	82 2f       	mov	r24, r18
 112:	8f 5f       	subi	r24, 0xFF	; 255
 114:	80 93 65 00 	sts	0x0065, r24
 118:	88 30       	cpi	r24, 0x08	; 8
 11a:	1c f4       	brge	.+6      	; 0x122 <__vector_3+0x66>
 11c:	85 b5       	in	r24, 0x25	; 37
 11e:	80 61       	ori	r24, 0x10	; 16
 120:	02 c0       	rjmp	.+4      	; 0x126 <__vector_3+0x6a>
 122:	85 b5       	in	r24, 0x25	; 37
 124:	8d 7f       	andi	r24, 0xFD	; 253
 126:	85 bd       	out	0x25, r24	; 37
 128:	10 92 66 00 	sts	0x0066, r1
 12c:	9f 91       	pop	r25
 12e:	8f 91       	pop	r24
 130:	2f 91       	pop	r18
 132:	0f 90       	pop	r0
 134:	0f be       	out	0x3f, r0	; 63
 136:	0f 90       	pop	r0
 138:	1f 90       	pop	r1
 13a:	18 95       	reti

0000013c <initPWM>:
 13c:	10 92 66 00 	sts	0x0066, r1
 140:	10 92 65 00 	sts	0x0065, r1
 144:	8c e5       	ldi	r24, 0x5C	; 92
 146:	80 93 67 00 	sts	0x0067, r24
 14a:	8a ec       	ldi	r24, 0xCA	; 202
 14c:	80 93 68 00 	sts	0x0068, r24
 150:	8a e1       	ldi	r24, 0x1A	; 26
 152:	85 bd       	out	0x25, r24	; 37
 154:	89 b7       	in	r24, 0x39	; 57
 156:	80 68       	ori	r24, 0x80	; 128
 158:	89 bf       	out	0x39, r24	; 57
 15a:	81 ed       	ldi	r24, 0xD1	; 209
 15c:	83 bd       	out	0x23, r24	; 35
 15e:	bb 9a       	sbi	0x17, 3	; 23
 160:	08 95       	ret

00000162 <main>:
 162:	2e e0       	ldi	r18, 0x0E	; 14
 164:	88 e1       	ldi	r24, 0x18	; 24
 166:	90 e0       	ldi	r25, 0x00	; 0
 168:	0f b6       	in	r0, 0x3f	; 63
 16a:	f8 94       	cli
 16c:	a8 95       	wdr
 16e:	81 bd       	out	0x21, r24	; 33
 170:	0f be       	out	0x3f, r0	; 63
 172:	21 bd       	out	0x21, r18	; 33
 174:	17 d1       	rcall	.+558    	; 0x3a4 <usbInit>
 176:	59 d0       	rcall	.+178    	; 0x22a <sp_init>
 178:	88 9a       	sbi	0x11, 0	; 17
 17a:	80 e0       	ldi	r24, 0x00	; 0
 17c:	20 ea       	ldi	r18, 0xA0	; 160
 17e:	3f e0       	ldi	r19, 0x0F	; 15
 180:	04 c0       	rjmp	.+8      	; 0x18a <main+0x28>
 182:	a8 95       	wdr
 184:	f9 01       	movw	r30, r18
 186:	31 97       	sbiw	r30, 0x01	; 1
 188:	f1 f7       	brne	.-4      	; 0x186 <main+0x24>
 18a:	81 50       	subi	r24, 0x01	; 1
 18c:	d1 f7       	brne	.-12     	; 0x182 <main+0x20>
 18e:	88 98       	cbi	0x11, 0	; 17
 190:	78 94       	sei
 192:	a8 95       	wdr
 194:	14 d1       	rcall	.+552    	; 0x3be <usbPoll>
 196:	fd cf       	rjmp	.-6      	; 0x192 <main+0x30>

00000198 <usbFunctionSetup>:
 198:	fc 01       	movw	r30, r24
 19a:	82 e6       	ldi	r24, 0x62	; 98
 19c:	90 e0       	ldi	r25, 0x00	; 0
 19e:	90 93 84 00 	sts	0x0084, r25
 1a2:	80 93 83 00 	sts	0x0083, r24
 1a6:	81 81       	ldd	r24, Z+1	; 0x01
 1a8:	88 23       	and	r24, r24
 1aa:	61 f0       	breq	.+24     	; 0x1c4 <usbFunctionSetup+0x2c>
 1ac:	81 30       	cpi	r24, 0x01	; 1
 1ae:	79 f0       	breq	.+30     	; 0x1ce <usbFunctionSetup+0x36>
 1b0:	82 30       	cpi	r24, 0x02	; 2
 1b2:	31 f1       	breq	.+76     	; 0x200 <usbFunctionSetup+0x68>
 1b4:	83 30       	cpi	r24, 0x03	; 3
 1b6:	31 f1       	breq	.+76     	; 0x204 <usbFunctionSetup+0x6c>
 1b8:	84 30       	cpi	r24, 0x04	; 4
 1ba:	61 f1       	breq	.+88     	; 0x214 <usbFunctionSetup+0x7c>
 1bc:	85 30       	cpi	r24, 0x05	; 5
 1be:	09 f0       	breq	.+2      	; 0x1c2 <usbFunctionSetup+0x2a>
 1c0:	32 c0       	rjmp	.+100    	; 0x226 <usbFunctionSetup+0x8e>
 1c2:	2b c0       	rjmp	.+86     	; 0x21a <usbFunctionSetup+0x82>
 1c4:	82 81       	ldd	r24, Z+2	; 0x02
 1c6:	80 93 62 00 	sts	0x0062, r24
 1ca:	83 81       	ldd	r24, Z+3	; 0x03
 1cc:	1f c0       	rjmp	.+62     	; 0x20c <usbFunctionSetup+0x74>
 1ce:	88 e1       	ldi	r24, 0x18	; 24
 1d0:	0f b6       	in	r0, 0x3f	; 63
 1d2:	f8 94       	cli
 1d4:	81 bd       	out	0x21, r24	; 33
 1d6:	11 bc       	out	0x21, r1	; 33
 1d8:	0f be       	out	0x3f, r0	; 63
 1da:	28 e0       	ldi	r18, 0x08	; 8
 1dc:	88 e1       	ldi	r24, 0x18	; 24
 1de:	90 e0       	ldi	r25, 0x00	; 0
 1e0:	0f b6       	in	r0, 0x3f	; 63
 1e2:	f8 94       	cli
 1e4:	a8 95       	wdr
 1e6:	81 bd       	out	0x21, r24	; 33
 1e8:	0f be       	out	0x3f, r0	; 63
 1ea:	21 bd       	out	0x21, r18	; 33
 1ec:	88 ec       	ldi	r24, 0xC8	; 200
 1ee:	90 e0       	ldi	r25, 0x00	; 0
 1f0:	20 e9       	ldi	r18, 0x90	; 144
 1f2:	31 e0       	ldi	r19, 0x01	; 1
 1f4:	f9 01       	movw	r30, r18
 1f6:	31 97       	sbiw	r30, 0x01	; 1
 1f8:	f1 f7       	brne	.-4      	; 0x1f6 <usbFunctionSetup+0x5e>
 1fa:	01 97       	sbiw	r24, 0x01	; 1
 1fc:	d9 f7       	brne	.-10     	; 0x1f4 <usbFunctionSetup+0x5c>
 1fe:	13 c0       	rjmp	.+38     	; 0x226 <usbFunctionSetup+0x8e>
 200:	63 d0       	rcall	.+198    	; 0x2c8 <sp_send>
 202:	09 c0       	rjmp	.+18     	; 0x216 <usbFunctionSetup+0x7e>
 204:	8e ef       	ldi	r24, 0xFE	; 254
 206:	80 93 62 00 	sts	0x0062, r24
 20a:	82 81       	ldd	r24, Z+2	; 0x02
 20c:	80 93 63 00 	sts	0x0063, r24
 210:	82 e0       	ldi	r24, 0x02	; 2
 212:	08 95       	ret
 214:	ae d0       	rcall	.+348    	; 0x372 <sp_warm_up>
 216:	8e ef       	ldi	r24, 0xFE	; 254
 218:	02 c0       	rjmp	.+4      	; 0x21e <usbFunctionSetup+0x86>
 21a:	90 df       	rcall	.-224    	; 0x13c <initPWM>
 21c:	8c ef       	ldi	r24, 0xFC	; 252
 21e:	80 93 62 00 	sts	0x0062, r24
 222:	81 e0       	ldi	r24, 0x01	; 1
 224:	08 95       	ret
 226:	80 e0       	ldi	r24, 0x00	; 0
 228:	08 95       	ret

0000022a <sp_init>:
 22a:	a0 9a       	sbi	0x14, 0	; 20
 22c:	08 95       	ret

0000022e <one_bit>:
 22e:	80 e0       	ldi	r24, 0x00	; 0
 230:	90 e0       	ldi	r25, 0x00	; 0
 232:	25 e4       	ldi	r18, 0x45	; 69
 234:	a8 9a       	sbi	0x15, 0	; 21
 236:	32 2f       	mov	r19, r18
 238:	3a 95       	dec	r19
 23a:	f1 f7       	brne	.-4      	; 0x238 <one_bit+0xa>
 23c:	a8 98       	cbi	0x15, 0	; 21
 23e:	32 2f       	mov	r19, r18
 240:	3a 95       	dec	r19
 242:	f1 f7       	brne	.-4      	; 0x240 <one_bit+0x12>
 244:	01 96       	adiw	r24, 0x01	; 1
 246:	85 31       	cpi	r24, 0x15	; 21
 248:	91 05       	cpc	r25, r1
 24a:	a1 f7       	brne	.-24     	; 0x234 <one_bit+0x6>
 24c:	a8 98       	cbi	0x15, 0	; 21
 24e:	88 e6       	ldi	r24, 0x68	; 104
 250:	9a e1       	ldi	r25, 0x1A	; 26
 252:	01 97       	sbiw	r24, 0x01	; 1
 254:	f1 f7       	brne	.-4      	; 0x252 <one_bit+0x24>
 256:	08 95       	ret

00000258 <zero_bit>:
 258:	80 e0       	ldi	r24, 0x00	; 0
 25a:	90 e0       	ldi	r25, 0x00	; 0
 25c:	25 e4       	ldi	r18, 0x45	; 69
 25e:	a8 9a       	sbi	0x15, 0	; 21
 260:	32 2f       	mov	r19, r18
 262:	3a 95       	dec	r19
 264:	f1 f7       	brne	.-4      	; 0x262 <zero_bit+0xa>
 266:	a8 98       	cbi	0x15, 0	; 21
 268:	32 2f       	mov	r19, r18
 26a:	3a 95       	dec	r19
 26c:	f1 f7       	brne	.-4      	; 0x26a <zero_bit+0x12>
 26e:	01 96       	adiw	r24, 0x01	; 1
 270:	85 31       	cpi	r24, 0x15	; 21
 272:	91 05       	cpc	r25, r1
 274:	a1 f7       	brne	.-24     	; 0x25e <zero_bit+0x6>
 276:	a8 98       	cbi	0x15, 0	; 21
 278:	80 ec       	ldi	r24, 0xC0	; 192
 27a:	98 e0       	ldi	r25, 0x08	; 8
 27c:	01 97       	sbiw	r24, 0x01	; 1
 27e:	f1 f7       	brne	.-4      	; 0x27c <zero_bit+0x24>
 280:	08 95       	ret

00000282 <start_bit>:
 282:	80 e0       	ldi	r24, 0x00	; 0
 284:	90 e0       	ldi	r25, 0x00	; 0
 286:	20 e4       	ldi	r18, 0x40	; 64
 288:	a8 9a       	sbi	0x15, 0	; 21
 28a:	32 2f       	mov	r19, r18
 28c:	3a 95       	dec	r19
 28e:	f1 f7       	brne	.-4      	; 0x28c <start_bit+0xa>
 290:	a8 98       	cbi	0x15, 0	; 21
 292:	32 2f       	mov	r19, r18
 294:	3a 95       	dec	r19
 296:	f1 f7       	brne	.-4      	; 0x294 <start_bit+0x12>
 298:	01 96       	adiw	r24, 0x01	; 1
 29a:	89 3a       	cpi	r24, 0xA9	; 169
 29c:	91 05       	cpc	r25, r1
 29e:	a1 f7       	brne	.-24     	; 0x288 <start_bit+0x6>
 2a0:	a8 98       	cbi	0x15, 0	; 21
 2a2:	80 e5       	ldi	r24, 0x50	; 80
 2a4:	96 e4       	ldi	r25, 0x46	; 70
 2a6:	01 97       	sbiw	r24, 0x01	; 1
 2a8:	f1 f7       	brne	.-4      	; 0x2a6 <start_bit+0x24>
 2aa:	08 95       	ret

000002ac <sp_manu_code>:
 2ac:	ea df       	rcall	.-44     	; 0x282 <start_bit>
 2ae:	bf df       	rcall	.-130    	; 0x22e <one_bit>
 2b0:	be df       	rcall	.-132    	; 0x22e <one_bit>
 2b2:	bd df       	rcall	.-134    	; 0x22e <one_bit>
 2b4:	d1 df       	rcall	.-94     	; 0x258 <zero_bit>
 2b6:	d0 df       	rcall	.-96     	; 0x258 <zero_bit>
 2b8:	cf df       	rcall	.-98     	; 0x258 <zero_bit>
 2ba:	ce df       	rcall	.-100    	; 0x258 <zero_bit>
 2bc:	cd df       	rcall	.-102    	; 0x258 <zero_bit>
 2be:	b7 df       	rcall	.-146    	; 0x22e <one_bit>
 2c0:	b6 df       	rcall	.-148    	; 0x22e <one_bit>
 2c2:	b5 df       	rcall	.-150    	; 0x22e <one_bit>
 2c4:	c9 df       	rcall	.-110    	; 0x258 <zero_bit>
 2c6:	08 95       	ret

000002c8 <sp_send>:
 2c8:	f8 94       	cli
 2ca:	f0 df       	rcall	.-32     	; 0x2ac <sp_manu_code>
 2cc:	c5 df       	rcall	.-118    	; 0x258 <zero_bit>
 2ce:	c4 df       	rcall	.-120    	; 0x258 <zero_bit>
 2d0:	c3 df       	rcall	.-122    	; 0x258 <zero_bit>
 2d2:	c2 df       	rcall	.-124    	; 0x258 <zero_bit>
 2d4:	ac df       	rcall	.-168    	; 0x22e <one_bit>
 2d6:	c0 df       	rcall	.-128    	; 0x258 <zero_bit>
 2d8:	bf df       	rcall	.-130    	; 0x258 <zero_bit>
 2da:	be df       	rcall	.-132    	; 0x258 <zero_bit>
 2dc:	bd df       	rcall	.-134    	; 0x258 <zero_bit>
 2de:	bc df       	rcall	.-136    	; 0x258 <zero_bit>
 2e0:	bb df       	rcall	.-138    	; 0x258 <zero_bit>
 2e2:	ba df       	rcall	.-140    	; 0x258 <zero_bit>
 2e4:	b9 df       	rcall	.-142    	; 0x258 <zero_bit>
 2e6:	a3 df       	rcall	.-186    	; 0x22e <one_bit>
 2e8:	a2 df       	rcall	.-188    	; 0x22e <one_bit>
 2ea:	a1 df       	rcall	.-190    	; 0x22e <one_bit>
 2ec:	a0 df       	rcall	.-192    	; 0x22e <one_bit>
 2ee:	9f df       	rcall	.-194    	; 0x22e <one_bit>
 2f0:	9e df       	rcall	.-196    	; 0x22e <one_bit>
 2f2:	9d df       	rcall	.-198    	; 0x22e <one_bit>
 2f4:	9c df       	rcall	.-200    	; 0x22e <one_bit>
 2f6:	78 94       	sei
 2f8:	08 95       	ret

000002fa <sp_send_code>:
 2fa:	0f 93       	push	r16
 2fc:	1f 93       	push	r17
 2fe:	cf 93       	push	r28
 300:	df 93       	push	r29
 302:	08 2f       	mov	r16, r24
 304:	d3 df       	rcall	.-90     	; 0x2ac <sp_manu_code>
 306:	a8 df       	rcall	.-176    	; 0x258 <zero_bit>
 308:	a7 df       	rcall	.-178    	; 0x258 <zero_bit>
 30a:	a6 df       	rcall	.-180    	; 0x258 <zero_bit>
 30c:	a5 df       	rcall	.-182    	; 0x258 <zero_bit>
 30e:	c7 e0       	ldi	r28, 0x07	; 7
 310:	d0 e0       	ldi	r29, 0x00	; 0
 312:	10 e0       	ldi	r17, 0x00	; 0
 314:	c8 01       	movw	r24, r16
 316:	0c 2e       	mov	r0, r28
 318:	02 c0       	rjmp	.+4      	; 0x31e <sp_send_code+0x24>
 31a:	95 95       	asr	r25
 31c:	87 95       	ror	r24
 31e:	0a 94       	dec	r0
 320:	e2 f7       	brpl	.-8      	; 0x31a <sp_send_code+0x20>
 322:	80 ff       	sbrs	r24, 0
 324:	02 c0       	rjmp	.+4      	; 0x32a <sp_send_code+0x30>
 326:	83 df       	rcall	.-250    	; 0x22e <one_bit>
 328:	01 c0       	rjmp	.+2      	; 0x32c <sp_send_code+0x32>
 32a:	96 df       	rcall	.-212    	; 0x258 <zero_bit>
 32c:	21 97       	sbiw	r28, 0x01	; 1
 32e:	c2 30       	cpi	r28, 0x02	; 2
 330:	d1 05       	cpc	r29, r1
 332:	81 f7       	brne	.-32     	; 0x314 <sp_send_code+0x1a>
 334:	91 df       	rcall	.-222    	; 0x258 <zero_bit>
 336:	90 df       	rcall	.-224    	; 0x258 <zero_bit>
 338:	8f df       	rcall	.-226    	; 0x258 <zero_bit>
 33a:	c7 e0       	ldi	r28, 0x07	; 7
 33c:	d0 e0       	ldi	r29, 0x00	; 0
 33e:	c8 01       	movw	r24, r16
 340:	0c 2e       	mov	r0, r28
 342:	02 c0       	rjmp	.+4      	; 0x348 <sp_send_code+0x4e>
 344:	95 95       	asr	r25
 346:	87 95       	ror	r24
 348:	0a 94       	dec	r0
 34a:	e2 f7       	brpl	.-8      	; 0x344 <sp_send_code+0x4a>
 34c:	80 ff       	sbrs	r24, 0
 34e:	02 c0       	rjmp	.+4      	; 0x354 <sp_send_code+0x5a>
 350:	83 df       	rcall	.-250    	; 0x258 <zero_bit>
 352:	01 c0       	rjmp	.+2      	; 0x356 <sp_send_code+0x5c>
 354:	6c df       	rcall	.-296    	; 0x22e <one_bit>
 356:	21 97       	sbiw	r28, 0x01	; 1
 358:	c2 30       	cpi	r28, 0x02	; 2
 35a:	d1 05       	cpc	r29, r1
 35c:	81 f7       	brne	.-32     	; 0x33e <sp_send_code+0x44>
 35e:	67 df       	rcall	.-306    	; 0x22e <one_bit>
 360:	66 df       	rcall	.-308    	; 0x22e <one_bit>
 362:	65 df       	rcall	.-310    	; 0x22e <one_bit>
 364:	64 df       	rcall	.-312    	; 0x22e <one_bit>
 366:	a2 df       	rcall	.-188    	; 0x2ac <sp_manu_code>
 368:	df 91       	pop	r29
 36a:	cf 91       	pop	r28
 36c:	1f 91       	pop	r17
 36e:	0f 91       	pop	r16
 370:	08 95       	ret

00000372 <sp_warm_up>:
 372:	0f 93       	push	r16
 374:	1f 93       	push	r17
 376:	cf 93       	push	r28
 378:	df 93       	push	r29
 37a:	10 e0       	ldi	r17, 0x00	; 0
 37c:	c0 e4       	ldi	r28, 0x40	; 64
 37e:	dc e9       	ldi	r29, 0x9C	; 156
 380:	0a c0       	rjmp	.+20     	; 0x396 <sp_warm_up+0x24>
 382:	55 df       	rcall	.-342    	; 0x22e <one_bit>
 384:	0f 5f       	subi	r16, 0xFF	; 255
 386:	00 32       	cpi	r16, 0x20	; 32
 388:	e1 f7       	brne	.-8      	; 0x382 <sp_warm_up+0x10>
 38a:	ce 01       	movw	r24, r28
 38c:	01 97       	sbiw	r24, 0x01	; 1
 38e:	f1 f7       	brne	.-4      	; 0x38c <sp_warm_up+0x1a>
 390:	1f 5f       	subi	r17, 0xFF	; 255
 392:	15 30       	cpi	r17, 0x05	; 5
 394:	11 f0       	breq	.+4      	; 0x39a <sp_warm_up+0x28>
 396:	00 e0       	ldi	r16, 0x00	; 0
 398:	f4 cf       	rjmp	.-24     	; 0x382 <sp_warm_up+0x10>
 39a:	df 91       	pop	r29
 39c:	cf 91       	pop	r28
 39e:	1f 91       	pop	r17
 3a0:	0f 91       	pop	r16
 3a2:	08 95       	ret

000003a4 <usbInit>:
 3a4:	85 b7       	in	r24, 0x35	; 53
 3a6:	82 60       	ori	r24, 0x02	; 2
 3a8:	85 bf       	out	0x35, r24	; 53
 3aa:	8b b7       	in	r24, 0x3b	; 59
 3ac:	80 64       	ori	r24, 0x40	; 64
 3ae:	8b bf       	out	0x3b, r24	; 59
 3b0:	8b e4       	ldi	r24, 0x4B	; 75
 3b2:	80 93 75 00 	sts	0x0075, r24
 3b6:	8a e5       	ldi	r24, 0x5A	; 90
 3b8:	80 93 74 00 	sts	0x0074, r24
 3bc:	08 95       	ret

000003be <usbPoll>:
 3be:	1f 93       	push	r17
 3c0:	cf 93       	push	r28
 3c2:	df 93       	push	r29
 3c4:	80 91 85 00 	lds	r24, 0x0085
 3c8:	83 50       	subi	r24, 0x03	; 3
 3ca:	87 fd       	sbrc	r24, 7
 3cc:	99 c0       	rjmp	.+306    	; 0x500 <__stack+0xa1>
 3ce:	90 91 82 00 	lds	r25, 0x0082
 3d2:	20 91 81 00 	lds	r18, 0x0081
 3d6:	2d 32       	cpi	r18, 0x2D	; 45
 3d8:	09 f0       	breq	.+2      	; 0x3dc <usbPoll+0x1e>
 3da:	90 c0       	rjmp	.+288    	; 0x4fc <__stack+0x9d>
 3dc:	88 30       	cpi	r24, 0x08	; 8
 3de:	09 f0       	breq	.+2      	; 0x3e2 <usbPoll+0x24>
 3e0:	8d c0       	rjmp	.+282    	; 0x4fc <__stack+0x9d>
 3e2:	cc e0       	ldi	r28, 0x0C	; 12
 3e4:	d0 e0       	ldi	r29, 0x00	; 0
 3e6:	c9 1b       	sub	r28, r25
 3e8:	d1 09       	sbc	r29, r1
 3ea:	c7 57       	subi	r28, 0x77	; 119
 3ec:	df 4f       	sbci	r29, 0xFF	; 255
 3ee:	83 ec       	ldi	r24, 0xC3	; 195
 3f0:	80 93 69 00 	sts	0x0069, r24
 3f4:	8a e5       	ldi	r24, 0x5A	; 90
 3f6:	80 93 60 00 	sts	0x0060, r24
 3fa:	10 92 64 00 	sts	0x0064, r1
 3fe:	28 81       	ld	r18, Y
 400:	82 2f       	mov	r24, r18
 402:	80 76       	andi	r24, 0x60	; 96
 404:	19 f0       	breq	.+6      	; 0x40c <usbPoll+0x4e>
 406:	ce 01       	movw	r24, r28
 408:	c7 de       	rcall	.-626    	; 0x198 <usbFunctionSetup>
 40a:	6f c0       	rjmp	.+222    	; 0x4ea <__stack+0x8b>
 40c:	9a 81       	ldd	r25, Y+2	; 0x02
 40e:	10 92 72 00 	sts	0x0072, r1
 412:	89 81       	ldd	r24, Y+1	; 0x01
 414:	88 23       	and	r24, r24
 416:	59 f4       	brne	.+22     	; 0x42e <usbPoll+0x70>
 418:	2f 71       	andi	r18, 0x1F	; 31
 41a:	19 f4       	brne	.+6      	; 0x422 <usbPoll+0x64>
 41c:	81 e0       	ldi	r24, 0x01	; 1
 41e:	80 93 72 00 	sts	0x0072, r24
 422:	10 92 73 00 	sts	0x0073, r1
 426:	22 e7       	ldi	r18, 0x72	; 114
 428:	30 e0       	ldi	r19, 0x00	; 0
 42a:	82 e0       	ldi	r24, 0x02	; 2
 42c:	5a c0       	rjmp	.+180    	; 0x4e2 <__stack+0x83>
 42e:	85 30       	cpi	r24, 0x05	; 5
 430:	19 f4       	brne	.+6      	; 0x438 <usbPoll+0x7a>
 432:	90 93 86 00 	sts	0x0086, r25
 436:	52 c0       	rjmp	.+164    	; 0x4dc <__stack+0x7d>
 438:	86 30       	cpi	r24, 0x06	; 6
 43a:	d9 f5       	brne	.+118    	; 0x4b2 <__stack+0x53>
 43c:	8b 81       	ldd	r24, Y+3	; 0x03
 43e:	81 30       	cpi	r24, 0x01	; 1
 440:	41 f4       	brne	.+16     	; 0x452 <usbPoll+0x94>
 442:	88 e5       	ldi	r24, 0x58	; 88
 444:	90 e0       	ldi	r25, 0x00	; 0
 446:	90 93 84 00 	sts	0x0084, r25
 44a:	80 93 83 00 	sts	0x0083, r24
 44e:	82 e1       	ldi	r24, 0x12	; 18
 450:	2c c0       	rjmp	.+88     	; 0x4aa <__stack+0x4b>
 452:	82 30       	cpi	r24, 0x02	; 2
 454:	41 f4       	brne	.+16     	; 0x466 <__stack+0x7>
 456:	8a e6       	ldi	r24, 0x6A	; 106
 458:	90 e0       	ldi	r25, 0x00	; 0
 45a:	90 93 84 00 	sts	0x0084, r25
 45e:	80 93 83 00 	sts	0x0083, r24
 462:	89 e1       	ldi	r24, 0x19	; 25
 464:	22 c0       	rjmp	.+68     	; 0x4aa <__stack+0x4b>
 466:	83 30       	cpi	r24, 0x03	; 3
 468:	f9 f4       	brne	.+62     	; 0x4a8 <__stack+0x49>
 46a:	8a 81       	ldd	r24, Y+2	; 0x02
 46c:	88 23       	and	r24, r24
 46e:	41 f4       	brne	.+16     	; 0x480 <__stack+0x21>
 470:	82 e3       	ldi	r24, 0x32	; 50
 472:	90 e0       	ldi	r25, 0x00	; 0
 474:	90 93 84 00 	sts	0x0084, r25
 478:	80 93 83 00 	sts	0x0083, r24
 47c:	84 e0       	ldi	r24, 0x04	; 4
 47e:	15 c0       	rjmp	.+42     	; 0x4aa <__stack+0x4b>
 480:	81 30       	cpi	r24, 0x01	; 1
 482:	41 f4       	brne	.+16     	; 0x494 <__stack+0x35>
 484:	86 e3       	ldi	r24, 0x36	; 54
 486:	90 e0       	ldi	r25, 0x00	; 0
 488:	90 93 84 00 	sts	0x0084, r25
 48c:	80 93 83 00 	sts	0x0083, r24
 490:	84 e1       	ldi	r24, 0x14	; 20
 492:	0b c0       	rjmp	.+22     	; 0x4aa <__stack+0x4b>
 494:	82 30       	cpi	r24, 0x02	; 2
 496:	41 f4       	brne	.+16     	; 0x4a8 <__stack+0x49>
 498:	8a e4       	ldi	r24, 0x4A	; 74
 49a:	90 e0       	ldi	r25, 0x00	; 0
 49c:	90 93 84 00 	sts	0x0084, r25
 4a0:	80 93 83 00 	sts	0x0083, r24
 4a4:	8e e0       	ldi	r24, 0x0E	; 14
 4a6:	01 c0       	rjmp	.+2      	; 0x4aa <__stack+0x4b>
 4a8:	80 e0       	ldi	r24, 0x00	; 0
 4aa:	90 e4       	ldi	r25, 0x40	; 64
 4ac:	90 93 64 00 	sts	0x0064, r25
 4b0:	1c c0       	rjmp	.+56     	; 0x4ea <__stack+0x8b>
 4b2:	88 30       	cpi	r24, 0x08	; 8
 4b4:	19 f4       	brne	.+6      	; 0x4bc <__stack+0x5d>
 4b6:	28 e8       	ldi	r18, 0x88	; 136
 4b8:	30 e0       	ldi	r19, 0x00	; 0
 4ba:	09 c0       	rjmp	.+18     	; 0x4ce <__stack+0x6f>
 4bc:	89 30       	cpi	r24, 0x09	; 9
 4be:	19 f4       	brne	.+6      	; 0x4c6 <__stack+0x67>
 4c0:	90 93 88 00 	sts	0x0088, r25
 4c4:	0b c0       	rjmp	.+22     	; 0x4dc <__stack+0x7d>
 4c6:	8a 30       	cpi	r24, 0x0A	; 10
 4c8:	21 f4       	brne	.+8      	; 0x4d2 <__stack+0x73>
 4ca:	22 e7       	ldi	r18, 0x72	; 114
 4cc:	30 e0       	ldi	r19, 0x00	; 0
 4ce:	81 e0       	ldi	r24, 0x01	; 1
 4d0:	08 c0       	rjmp	.+16     	; 0x4e2 <__stack+0x83>
 4d2:	8b 30       	cpi	r24, 0x0B	; 11
 4d4:	19 f4       	brne	.+6      	; 0x4dc <__stack+0x7d>
 4d6:	8b e4       	ldi	r24, 0x4B	; 75
 4d8:	80 93 75 00 	sts	0x0075, r24
 4dc:	22 e7       	ldi	r18, 0x72	; 114
 4de:	30 e0       	ldi	r19, 0x00	; 0
 4e0:	80 e0       	ldi	r24, 0x00	; 0
 4e2:	30 93 84 00 	sts	0x0084, r19
 4e6:	20 93 83 00 	sts	0x0083, r18
 4ea:	9f 81       	ldd	r25, Y+7	; 0x07
 4ec:	99 23       	and	r25, r25
 4ee:	21 f4       	brne	.+8      	; 0x4f8 <__stack+0x99>
 4f0:	9e 81       	ldd	r25, Y+6	; 0x06
 4f2:	98 17       	cp	r25, r24
 4f4:	08 f4       	brcc	.+2      	; 0x4f8 <__stack+0x99>
 4f6:	89 2f       	mov	r24, r25
 4f8:	80 93 61 00 	sts	0x0061, r24
 4fc:	10 92 85 00 	sts	0x0085, r1
 500:	80 91 60 00 	lds	r24, 0x0060
 504:	84 ff       	sbrs	r24, 4
 506:	4d c0       	rjmp	.+154    	; 0x5a2 <__stack+0x143>
 508:	80 91 61 00 	lds	r24, 0x0061
 50c:	8f 3f       	cpi	r24, 0xFF	; 255
 50e:	09 f4       	brne	.+2      	; 0x512 <__stack+0xb3>
 510:	48 c0       	rjmp	.+144    	; 0x5a2 <__stack+0x143>
 512:	18 2f       	mov	r17, r24
 514:	89 30       	cpi	r24, 0x09	; 9
 516:	08 f0       	brcs	.+2      	; 0x51a <__stack+0xbb>
 518:	18 e0       	ldi	r17, 0x08	; 8
 51a:	81 1b       	sub	r24, r17
 51c:	80 93 61 00 	sts	0x0061, r24
 520:	80 91 69 00 	lds	r24, 0x0069
 524:	98 e8       	ldi	r25, 0x88	; 136
 526:	89 27       	eor	r24, r25
 528:	80 93 69 00 	sts	0x0069, r24
 52c:	11 23       	and	r17, r17
 52e:	69 f1       	breq	.+90     	; 0x58a <__stack+0x12b>
 530:	20 91 83 00 	lds	r18, 0x0083
 534:	30 91 84 00 	lds	r19, 0x0084
 538:	90 91 64 00 	lds	r25, 0x0064
 53c:	81 2f       	mov	r24, r17
 53e:	81 50       	subi	r24, 0x01	; 1
 540:	96 ff       	sbrs	r25, 6
 542:	10 c0       	rjmp	.+32     	; 0x564 <__stack+0x105>
 544:	90 e0       	ldi	r25, 0x00	; 0
 546:	bc 01       	movw	r22, r24
 548:	65 59       	subi	r22, 0x95	; 149
 54a:	7f 4f       	sbci	r23, 0xFF	; 255
 54c:	a9 01       	movw	r20, r18
 54e:	ca e6       	ldi	r28, 0x6A	; 106
 550:	d0 e0       	ldi	r29, 0x00	; 0
 552:	fa 01       	movw	r30, r20
 554:	a4 91       	lpm	r26, Z
 556:	a9 93       	st	Y+, r26
 558:	4f 5f       	subi	r20, 0xFF	; 255
 55a:	5f 4f       	sbci	r21, 0xFF	; 255
 55c:	c6 17       	cp	r28, r22
 55e:	d7 07       	cpc	r29, r23
 560:	c1 f7       	brne	.-16     	; 0x552 <__stack+0xf3>
 562:	0c c0       	rjmp	.+24     	; 0x57c <__stack+0x11d>
 564:	90 e0       	ldi	r25, 0x00	; 0
 566:	ac 01       	movw	r20, r24
 568:	45 59       	subi	r20, 0x95	; 149
 56a:	5f 4f       	sbci	r21, 0xFF	; 255
 56c:	d9 01       	movw	r26, r18
 56e:	ea e6       	ldi	r30, 0x6A	; 106
 570:	f0 e0       	ldi	r31, 0x00	; 0
 572:	6d 91       	ld	r22, X+
 574:	61 93       	st	Z+, r22
 576:	e4 17       	cp	r30, r20
 578:	f5 07       	cpc	r31, r21
 57a:	d9 f7       	brne	.-10     	; 0x572 <__stack+0x113>
 57c:	01 96       	adiw	r24, 0x01	; 1
 57e:	82 0f       	add	r24, r18
 580:	93 1f       	adc	r25, r19
 582:	90 93 84 00 	sts	0x0084, r25
 586:	80 93 83 00 	sts	0x0083, r24
 58a:	8a e6       	ldi	r24, 0x6A	; 106
 58c:	90 e0       	ldi	r25, 0x00	; 0
 58e:	61 2f       	mov	r22, r17
 590:	51 d0       	rcall	.+162    	; 0x634 <usbCrc16Append>
 592:	1c 5f       	subi	r17, 0xFC	; 252
 594:	1c 30       	cpi	r17, 0x0C	; 12
 596:	19 f0       	breq	.+6      	; 0x59e <__stack+0x13f>
 598:	8f ef       	ldi	r24, 0xFF	; 255
 59a:	80 93 61 00 	sts	0x0061, r24
 59e:	10 93 60 00 	sts	0x0060, r17
 5a2:	84 e1       	ldi	r24, 0x14	; 20
 5a4:	90 b3       	in	r25, 0x10	; 16
 5a6:	95 70       	andi	r25, 0x05	; 5
 5a8:	31 f4       	brne	.+12     	; 0x5b6 <__stack+0x157>
 5aa:	81 50       	subi	r24, 0x01	; 1
 5ac:	d9 f7       	brne	.-10     	; 0x5a4 <__stack+0x145>
 5ae:	10 92 86 00 	sts	0x0086, r1
 5b2:	10 92 80 00 	sts	0x0080, r1
 5b6:	df 91       	pop	r29
 5b8:	cf 91       	pop	r28
 5ba:	1f 91       	pop	r17
 5bc:	08 95       	ret

000005be <usbSetInterrupt>:
 5be:	1f 93       	push	r17
 5c0:	fc 01       	movw	r30, r24
 5c2:	16 2f       	mov	r17, r22
 5c4:	80 91 74 00 	lds	r24, 0x0074
 5c8:	84 ff       	sbrs	r24, 4
 5ca:	07 c0       	rjmp	.+14     	; 0x5da <usbSetInterrupt+0x1c>
 5cc:	80 91 75 00 	lds	r24, 0x0075
 5d0:	98 e8       	ldi	r25, 0x88	; 136
 5d2:	89 27       	eor	r24, r25
 5d4:	80 93 75 00 	sts	0x0075, r24
 5d8:	03 c0       	rjmp	.+6      	; 0x5e0 <usbSetInterrupt+0x22>
 5da:	8a e5       	ldi	r24, 0x5A	; 90
 5dc:	80 93 74 00 	sts	0x0074, r24
 5e0:	81 2f       	mov	r24, r17
 5e2:	81 50       	subi	r24, 0x01	; 1
 5e4:	90 e0       	ldi	r25, 0x00	; 0
 5e6:	89 58       	subi	r24, 0x89	; 137
 5e8:	9f 4f       	sbci	r25, 0xFF	; 255
 5ea:	a6 e7       	ldi	r26, 0x76	; 118
 5ec:	b0 e0       	ldi	r27, 0x00	; 0
 5ee:	21 91       	ld	r18, Z+
 5f0:	2d 93       	st	X+, r18
 5f2:	a8 17       	cp	r26, r24
 5f4:	b9 07       	cpc	r27, r25
 5f6:	d9 f7       	brne	.-10     	; 0x5ee <usbSetInterrupt+0x30>
 5f8:	86 e7       	ldi	r24, 0x76	; 118
 5fa:	90 e0       	ldi	r25, 0x00	; 0
 5fc:	61 2f       	mov	r22, r17
 5fe:	1a d0       	rcall	.+52     	; 0x634 <usbCrc16Append>
 600:	1c 5f       	subi	r17, 0xFC	; 252
 602:	10 93 74 00 	sts	0x0074, r17
 606:	1f 91       	pop	r17
 608:	08 95       	ret

0000060a <usbCrc16>:
 60a:	a8 2f       	mov	r26, r24
 60c:	b9 2f       	mov	r27, r25
 60e:	80 e0       	ldi	r24, 0x00	; 0
 610:	90 e0       	ldi	r25, 0x00	; 0
 612:	41 e0       	ldi	r20, 0x01	; 1
 614:	50 ea       	ldi	r21, 0xA0	; 160
 616:	60 95       	com	r22
 618:	30 e0       	ldi	r19, 0x00	; 0
 61a:	09 c0       	rjmp	.+18     	; 0x62e <usbCrcLoopEntry>

0000061c <usbCrcByteLoop>:
 61c:	2d 91       	ld	r18, X+
 61e:	82 27       	eor	r24, r18

00000620 <usbCrcBitLoop>:
 620:	97 95       	ror	r25
 622:	87 95       	ror	r24
 624:	10 f0       	brcs	.+4      	; 0x62a <usbCrcNoXor>
 626:	84 27       	eor	r24, r20
 628:	95 27       	eor	r25, r21

0000062a <usbCrcNoXor>:
 62a:	30 5e       	subi	r19, 0xE0	; 224
 62c:	c8 f3       	brcs	.-14     	; 0x620 <usbCrcBitLoop>

0000062e <usbCrcLoopEntry>:
 62e:	6f 5f       	subi	r22, 0xFF	; 255
 630:	a8 f3       	brcs	.-22     	; 0x61c <usbCrcByteLoop>

00000632 <usbCrcReady>:
 632:	08 95       	ret

00000634 <usbCrc16Append>:
 634:	ea df       	rcall	.-44     	; 0x60a <usbCrc16>
 636:	8d 93       	st	X+, r24
 638:	9d 93       	st	X+, r25
 63a:	08 95       	ret

0000063c <__vector_1>:
 63c:	cf 93       	push	r28
 63e:	cf b7       	in	r28, 0x3f	; 63
 640:	cf 93       	push	r28
 642:	df 93       	push	r29

00000644 <waitForJ>:
 644:	c3 95       	inc	r28
 646:	80 9b       	sbis	0x10, 0	; 16
 648:	e9 f7       	brne	.-6      	; 0x644 <waitForJ>

0000064a <waitForK>:
 64a:	80 9b       	sbis	0x10, 0	; 16
 64c:	0b c0       	rjmp	.+22     	; 0x664 <foundK>
 64e:	80 9b       	sbis	0x10, 0	; 16
 650:	09 c0       	rjmp	.+18     	; 0x664 <foundK>
 652:	80 9b       	sbis	0x10, 0	; 16
 654:	07 c0       	rjmp	.+14     	; 0x664 <foundK>
 656:	80 9b       	sbis	0x10, 0	; 16
 658:	05 c0       	rjmp	.+10     	; 0x664 <foundK>
 65a:	80 9b       	sbis	0x10, 0	; 16
 65c:	03 c0       	rjmp	.+6      	; 0x664 <foundK>
 65e:	80 9b       	sbis	0x10, 0	; 16
 660:	01 c0       	rjmp	.+2      	; 0x664 <foundK>
 662:	8b c0       	rjmp	.+278    	; 0x77a <sofError>

00000664 <foundK>:
 664:	6f 93       	push	r22
 666:	c0 91 82 00 	lds	r28, 0x0082
 66a:	dd 27       	eor	r29, r29
 66c:	c7 57       	subi	r28, 0x77	; 119
 66e:	df 4f       	sbci	r29, 0xFF	; 255
 670:	2f 93       	push	r18
 672:	65 e5       	ldi	r22, 0x55	; 85
 674:	80 9b       	sbis	0x10, 0	; 16
 676:	03 c0       	rjmp	.+6      	; 0x67e <haveTwoBitsK>
 678:	2f 91       	pop	r18
 67a:	6f 91       	pop	r22
 67c:	e6 cf       	rjmp	.-52     	; 0x64a <waitForK>

0000067e <haveTwoBitsK>:
 67e:	0f 93       	push	r16
 680:	1f 93       	push	r17
 682:	4f 93       	push	r20
 684:	20 e0       	ldi	r18, 0x00	; 0
 686:	40 e1       	ldi	r20, 0x10	; 16
 688:	5f 93       	push	r21
 68a:	00 b3       	in	r16, 0x10	; 16
 68c:	05 70       	andi	r16, 0x05	; 5
 68e:	00 fb       	bst	r16, 0
 690:	27 f9       	bld	r18, 7
 692:	3f 93       	push	r19
 694:	50 e0       	ldi	r21, 0x00	; 0
 696:	3b e0       	ldi	r19, 0x0B	; 11
 698:	39 c0       	rjmp	.+114    	; 0x70c <rxbit1>

0000069a <unstuff6>:
 69a:	15 70       	andi	r17, 0x05	; 5
 69c:	40 64       	ori	r20, 0x40	; 64
 69e:	2f 77       	andi	r18, 0x7F	; 127
 6a0:	01 2f       	mov	r16, r17
 6a2:	5f 5f       	subi	r21, 0xFF	; 255
 6a4:	1e c0       	rjmp	.+60     	; 0x6e2 <didUnstuff6>

000006a6 <unstuff7>:
 6a6:	40 68       	ori	r20, 0x80	; 128
 6a8:	10 b3       	in	r17, 0x10	; 16
 6aa:	15 70       	andi	r17, 0x05	; 5
 6ac:	2f 77       	andi	r18, 0x7F	; 127
 6ae:	52 50       	subi	r21, 0x02	; 2
 6b0:	1f c0       	rjmp	.+62     	; 0x6f0 <didUnstuff7>

000006b2 <unstuffEven>:
 6b2:	40 64       	ori	r20, 0x40	; 64
 6b4:	00 b3       	in	r16, 0x10	; 16
 6b6:	2f 77       	andi	r18, 0x7F	; 127
 6b8:	05 70       	andi	r16, 0x05	; 5
 6ba:	d1 f1       	breq	.+116    	; 0x730 <se0>
 6bc:	5f 5f       	subi	r21, 0xFF	; 255
 6be:	00 c0       	rjmp	.+0      	; 0x6c0 <unstuffEven+0xe>
 6c0:	23 c0       	rjmp	.+70     	; 0x708 <didUnstuffE>

000006c2 <unstuffOdd>:
 6c2:	40 62       	ori	r20, 0x20	; 32
 6c4:	10 b3       	in	r17, 0x10	; 16
 6c6:	2f 77       	andi	r18, 0x7F	; 127
 6c8:	15 70       	andi	r17, 0x05	; 5
 6ca:	91 f1       	breq	.+100    	; 0x730 <se0>
 6cc:	5f 5f       	subi	r21, 0xFF	; 255
 6ce:	00 c0       	rjmp	.+0      	; 0x6d0 <unstuffOdd+0xe>
 6d0:	25 c0       	rjmp	.+74     	; 0x71c <didUnstuffO>

000006d2 <rxByteLoop>:
 6d2:	05 70       	andi	r16, 0x05	; 5
 6d4:	10 27       	eor	r17, r16
 6d6:	51 50       	subi	r21, 0x01	; 1
 6d8:	12 f4       	brpl	.+4      	; 0x6de <skipLeap>
 6da:	5d 5f       	subi	r21, 0xFD	; 253
	...

000006de <skipLeap>:
 6de:	11 50       	subi	r17, 0x01	; 1
 6e0:	27 95       	ror	r18

000006e2 <didUnstuff6>:
 6e2:	2c 3f       	cpi	r18, 0xFC	; 252
 6e4:	10 b3       	in	r17, 0x10	; 16
 6e6:	c8 f6       	brcc	.-78     	; 0x69a <unstuff6>
 6e8:	15 70       	andi	r17, 0x05	; 5
 6ea:	01 27       	eor	r16, r17
 6ec:	01 50       	subi	r16, 0x01	; 1
 6ee:	27 95       	ror	r18

000006f0 <didUnstuff7>:
 6f0:	2c 3f       	cpi	r18, 0xFC	; 252
 6f2:	c8 f6       	brcc	.-78     	; 0x6a6 <unstuff7>
 6f4:	42 27       	eor	r20, r18
 6f6:	49 93       	st	Y+, r20

000006f8 <rxBitLoop>:
 6f8:	00 b3       	in	r16, 0x10	; 16
 6fa:	05 70       	andi	r16, 0x05	; 5
 6fc:	10 27       	eor	r17, r16
 6fe:	4f 73       	andi	r20, 0x3F	; 63
 700:	11 50       	subi	r17, 0x01	; 1
 702:	27 95       	ror	r18
 704:	2c 3f       	cpi	r18, 0xFC	; 252
 706:	a8 f6       	brcc	.-86     	; 0x6b2 <unstuffEven>

00000708 <didUnstuffE>:
 708:	46 95       	lsr	r20
 70a:	46 95       	lsr	r20

0000070c <rxbit1>:
 70c:	10 b3       	in	r17, 0x10	; 16
 70e:	15 70       	andi	r17, 0x05	; 5
 710:	79 f0       	breq	.+30     	; 0x730 <se0>
 712:	01 27       	eor	r16, r17
 714:	01 50       	subi	r16, 0x01	; 1
 716:	27 95       	ror	r18
 718:	2c 3f       	cpi	r18, 0xFC	; 252
 71a:	98 f6       	brcc	.-90     	; 0x6c2 <unstuffOdd>

0000071c <didUnstuffO>:
 71c:	6b 5a       	subi	r22, 0xAB	; 171
 71e:	60 f3       	brcs	.-40     	; 0x6f8 <rxBitLoop>
 720:	31 50       	subi	r19, 0x01	; 1
 722:	00 b3       	in	r16, 0x10	; 16
 724:	b0 f6       	brcc	.-84     	; 0x6d2 <rxByteLoop>
 726:	00 c0       	rjmp	.+0      	; 0x728 <overflow>

00000728 <overflow>:
 728:	10 e4       	ldi	r17, 0x40	; 64
 72a:	1a bf       	out	0x3a, r17	; 58

0000072c <ignorePacket>:
 72c:	00 27       	eor	r16, r16
 72e:	19 c0       	rjmp	.+50     	; 0x762 <handleSetupOrOut>

00000730 <se0>:
 730:	3b 50       	subi	r19, 0x0B	; 11
 732:	31 95       	neg	r19
 734:	c3 1b       	sub	r28, r19
 736:	d0 40       	sbci	r29, 0x00	; 0
 738:	10 e4       	ldi	r17, 0x40	; 64
 73a:	1a bf       	out	0x3a, r17	; 58
 73c:	08 81       	ld	r16, Y
 73e:	03 3c       	cpi	r16, 0xC3	; 195
 740:	09 f1       	breq	.+66     	; 0x784 <handleData>
 742:	0b 34       	cpi	r16, 0x4B	; 75
 744:	f9 f0       	breq	.+62     	; 0x784 <handleData>
 746:	20 91 80 00 	lds	r18, 0x0080
 74a:	19 81       	ldd	r17, Y+1	; 0x01
 74c:	11 0f       	add	r17, r17
 74e:	12 13       	cpse	r17, r18
 750:	ed cf       	rjmp	.-38     	; 0x72c <ignorePacket>
 752:	4a 81       	ldd	r20, Y+2	; 0x02
 754:	44 1f       	adc	r20, r20
 756:	09 36       	cpi	r16, 0x69	; 105
 758:	51 f1       	breq	.+84     	; 0x7ae <handleIn>
 75a:	0d 32       	cpi	r16, 0x2D	; 45
 75c:	11 f0       	breq	.+4      	; 0x762 <handleSetupOrOut>
 75e:	01 3e       	cpi	r16, 0xE1	; 225
 760:	29 f7       	brne	.-54     	; 0x72c <ignorePacket>

00000762 <handleSetupOrOut>:
 762:	00 93 87 00 	sts	0x0087, r16

00000766 <doReturn>:
 766:	3f 91       	pop	r19
 768:	5f 91       	pop	r21
 76a:	4f 91       	pop	r20
 76c:	1f 91       	pop	r17
 76e:	0f 91       	pop	r16
 770:	2f 91       	pop	r18
 772:	6f 91       	pop	r22
 774:	ca b7       	in	r28, 0x3a	; 58
 776:	c6 fd       	sbrc	r28, 6
 778:	65 cf       	rjmp	.-310    	; 0x644 <waitForJ>

0000077a <sofError>:
 77a:	df 91       	pop	r29
 77c:	cf 91       	pop	r28
 77e:	cf bf       	out	0x3f, r28	; 63
 780:	cf 91       	pop	r28
 782:	18 95       	reti

00000784 <handleData>:
 784:	20 91 87 00 	lds	r18, 0x0087
 788:	22 23       	and	r18, r18
 78a:	69 f3       	breq	.-38     	; 0x766 <doReturn>
 78c:	10 91 85 00 	lds	r17, 0x0085
 790:	11 23       	and	r17, r17
 792:	91 f5       	brne	.+100    	; 0x7f8 <sendNakAndReti>
 794:	34 30       	cpi	r19, 0x04	; 4
 796:	92 f1       	brmi	.+100    	; 0x7fc <sendAckAndReti>
 798:	30 93 85 00 	sts	0x0085, r19
 79c:	20 93 81 00 	sts	0x0081, r18
 7a0:	10 91 82 00 	lds	r17, 0x0082
 7a4:	3b e0       	ldi	r19, 0x0B	; 11
 7a6:	31 1b       	sub	r19, r17
 7a8:	30 93 82 00 	sts	0x0082, r19
 7ac:	27 c0       	rjmp	.+78     	; 0x7fc <sendAckAndReti>

000007ae <handleIn>:
 7ae:	00 91 85 00 	lds	r16, 0x0085
 7b2:	01 30       	cpi	r16, 0x01	; 1
 7b4:	0c f5       	brge	.+66     	; 0x7f8 <sendNakAndReti>
 7b6:	0a e5       	ldi	r16, 0x5A	; 90
 7b8:	4f 70       	andi	r20, 0x0F	; 15
 7ba:	49 f4       	brne	.+18     	; 0x7ce <handleIn1>
 7bc:	30 91 60 00 	lds	r19, 0x0060
 7c0:	34 fd       	sbrc	r19, 4
 7c2:	1d c0       	rjmp	.+58     	; 0x7fe <sendCntAndReti>
 7c4:	00 93 60 00 	sts	0x0060, r16
 7c8:	c9 e6       	ldi	r28, 0x69	; 105
 7ca:	d0 e0       	ldi	r29, 0x00	; 0
 7cc:	1c c0       	rjmp	.+56     	; 0x806 <usbSendAndReti>

000007ce <handleIn1>:
 7ce:	30 91 74 00 	lds	r19, 0x0074
 7d2:	34 fd       	sbrc	r19, 4
 7d4:	14 c0       	rjmp	.+40     	; 0x7fe <sendCntAndReti>
 7d6:	00 93 74 00 	sts	0x0074, r16
 7da:	c5 e7       	ldi	r28, 0x75	; 117
 7dc:	d0 e0       	ldi	r29, 0x00	; 0
 7de:	13 c0       	rjmp	.+38     	; 0x806 <usbSendAndReti>

000007e0 <bitstuffN>:
 7e0:	05 27       	eor	r16, r21
 7e2:	10 e0       	ldi	r17, 0x00	; 0
 7e4:	00 c0       	rjmp	.+0      	; 0x7e6 <bitstuffN+0x6>
 7e6:	00 00       	nop
 7e8:	02 bb       	out	0x12, r16	; 18
 7ea:	1a c0       	rjmp	.+52     	; 0x820 <didStuffN>

000007ec <bitstuff6>:
 7ec:	05 27       	eor	r16, r21
 7ee:	10 e0       	ldi	r17, 0x00	; 0
 7f0:	22 1f       	adc	r18, r18
 7f2:	1d c0       	rjmp	.+58     	; 0x82e <didStuff6>

000007f4 <bitstuff7>:
 7f4:	10 e0       	ldi	r17, 0x00	; 0
 7f6:	21 c0       	rjmp	.+66     	; 0x83a <didStuff7>

000007f8 <sendNakAndReti>:
 7f8:	4a e5       	ldi	r20, 0x5A	; 90
 7fa:	02 c0       	rjmp	.+4      	; 0x800 <sendX3AndReti>

000007fc <sendAckAndReti>:
 7fc:	32 ed       	ldi	r19, 0xD2	; 210

000007fe <sendCntAndReti>:
 7fe:	43 2f       	mov	r20, r19

00000800 <sendX3AndReti>:
 800:	c4 e1       	ldi	r28, 0x14	; 20
 802:	d0 e0       	ldi	r29, 0x00	; 0
 804:	32 e0       	ldi	r19, 0x02	; 2

00000806 <usbSendAndReti>:
 806:	11 b3       	in	r17, 0x11	; 17
 808:	15 60       	ori	r17, 0x05	; 5
 80a:	90 9a       	sbi	0x12, 0	; 18
 80c:	02 b3       	in	r16, 0x12	; 18
 80e:	11 bb       	out	0x11, r17	; 17
 810:	55 e0       	ldi	r21, 0x05	; 5
 812:	20 e8       	ldi	r18, 0x80	; 128

00000814 <txByteLoop>:
 814:	65 e3       	ldi	r22, 0x35	; 53

00000816 <txBitLoop>:
 816:	20 ff       	sbrs	r18, 0
 818:	05 27       	eor	r16, r21
 81a:	02 bb       	out	0x12, r16	; 18
 81c:	27 95       	ror	r18
 81e:	17 95       	ror	r17

00000820 <didStuffN>:
 820:	1c 3f       	cpi	r17, 0xFC	; 252
 822:	f0 f6       	brcc	.-68     	; 0x7e0 <bitstuffN>
 824:	66 95       	lsr	r22
 826:	b8 f7       	brcc	.-18     	; 0x816 <txBitLoop>
 828:	b1 f7       	brne	.-20     	; 0x816 <txBitLoop>
 82a:	20 ff       	sbrs	r18, 0
 82c:	05 27       	eor	r16, r21

0000082e <didStuff6>:
 82e:	02 bb       	out	0x12, r16	; 18
 830:	27 95       	ror	r18
 832:	17 95       	ror	r17
 834:	1c 3f       	cpi	r17, 0xFC	; 252
 836:	d0 f6       	brcc	.-76     	; 0x7ec <bitstuff6>
 838:	27 95       	ror	r18

0000083a <didStuff7>:
 83a:	17 95       	ror	r17
 83c:	17 ff       	sbrs	r17, 7
 83e:	05 27       	eor	r16, r21
 840:	00 00       	nop
 842:	1c 3f       	cpi	r17, 0xFC	; 252
 844:	02 bb       	out	0x12, r16	; 18
 846:	b0 f6       	brcc	.-84     	; 0x7f4 <bitstuff7>
 848:	29 91       	ld	r18, Y+
 84a:	3a 95       	dec	r19
 84c:	19 f7       	brne	.-58     	; 0x814 <txByteLoop>
 84e:	0a 7f       	andi	r16, 0xFA	; 250
 850:	10 91 86 00 	lds	r17, 0x0086
 854:	11 0f       	add	r17, r17
 856:	c6 51       	subi	r28, 0x16	; 22
 858:	d0 40       	sbci	r29, 0x00	; 0
 85a:	02 bb       	out	0x12, r16	; 18
 85c:	11 f0       	breq	.+4      	; 0x862 <skipAddrAssign>
 85e:	10 93 80 00 	sts	0x0080, r17

00000862 <skipAddrAssign>:
 862:	10 e4       	ldi	r17, 0x40	; 64
 864:	1a bf       	out	0x3a, r17	; 58
 866:	01 60       	ori	r16, 0x01	; 1
 868:	11 b3       	in	r17, 0x11	; 17
 86a:	1a 7f       	andi	r17, 0xFA	; 250
 86c:	40 2f       	mov	r20, r16
 86e:	4a 7f       	andi	r20, 0xFA	; 250
 870:	54 e0       	ldi	r21, 0x04	; 4

00000872 <se0Delay>:
 872:	5a 95       	dec	r21
 874:	f1 f7       	brne	.-4      	; 0x872 <se0Delay>
 876:	02 bb       	out	0x12, r16	; 18
 878:	11 bb       	out	0x11, r17	; 17
 87a:	42 bb       	out	0x12, r20	; 18
 87c:	74 cf       	rjmp	.-280    	; 0x766 <doReturn>

0000087e <_exit>:
 87e:	f8 94       	cli

00000880 <__stop_program>:
 880:	ff cf       	rjmp	.-2      	; 0x880 <__stop_program>
